; Function Attrs: mustprogress nofree norecurse nosync nounwind willreturn memory(read, inaccessiblemem: none) uwtable
define hidden noundef i64 @_ZNK16DefNewGeneration13tlab_capacityEv(ptr nocapture noundef nonnull readonly align 8 dereferenceable(744) %0) local_unnamed_addr #6 align 2 {
  %2 = getelementptr inbounds i8, ptr %0, i64 672
  %3 = load ptr, ptr %2, align 8
  %4 = load ptr, ptr %3, align 8
  %5 = getelementptr inbounds i8, ptr %3, i64 8
  %6 = load ptr, ptr %5, align 8
  %7 = ptrtoint ptr %6 to i64
  %8 = ptrtoint ptr %4 to i64
  %9 = sub i64 %7, %8
  ret i64 %9
}